target datalayout = "e-m:e-p270:32:32-p271:32:32-p272:64:64-i64:64-i128:128-f80:128-n8:16:32:64-S128"
target triple = "x86_64-pc-linux-gnu"

%struct.zlentry = type { i32, i32, i32, i32, i32, i8, ptr }

@.str.1 = private unnamed_addr constant [10 x i8] c"ziplist.c\00", align 1
@.str.35 = private unnamed_addr constant [36 x i8] c"zipEntrySafe(zl, zlbytes, p, &e, 0)\00", align 1

; Function Attrs: inlinehint nounwind uwtable
define internal i32 @zipRawEntryLengthSafe(ptr noundef %0, i64 noundef %1, ptr noundef %2) #8 {
  %4 = alloca ptr, align 8
  %5 = alloca i64, align 8
  %6 = alloca ptr, align 8
  %7 = alloca %struct.zlentry, align 8
  store ptr %0, ptr %4, align 8, !tbaa !5
  store i64 %1, ptr %5, align 8, !tbaa !10
  store ptr %2, ptr %6, align 8, !tbaa !5
  call void @llvm.lifetime.start.p0(i64 32, ptr %7) #11
  %8 = load ptr, ptr %4, align 8, !tbaa !5
  %9 = load i64, ptr %5, align 8, !tbaa !10
  %10 = load ptr, ptr %6, align 8, !tbaa !5
  %11 = call i32 @zipEntrySafe(ptr noundef %8, i64 noundef %9, ptr noundef %10, ptr noundef %7, i32 noundef 0)
  %12 = icmp ne i32 %11, 0
  %13 = xor i1 %12, true
  %14 = xor i1 %13, true
  %15 = zext i1 %14 to i32
  %16 = sext i32 %15 to i64
  %17 = call i64 @llvm.expect.i64(i64 %16, i64 1)
  %18 = icmp ne i64 %17, 0
  br i1 %18, label %19, label %20

19:                                               ; preds = %3
  br label %22

20:                                               ; preds = %3
  call void @_serverAssert(ptr noundef @.str.35, ptr noundef @.str.1, i32 noundef 693)
  call void @abort() #12
  unreachable

21:                                               ; No predecessors!
  br label %22

22:                                               ; preds = %21, %19
  %23 = getelementptr inbounds nuw %struct.zlentry, ptr %7, i32 0, i32 4
  %24 = load i32, ptr %23, align 8, !tbaa !21
  %25 = getelementptr inbounds nuw %struct.zlentry, ptr %7, i32 0, i32 3
  %26 = load i32, ptr %25, align 4, !tbaa !23
  %27 = add i32 %24, %26
  call void @llvm.lifetime.end.p0(i64 32, ptr %7) #11
  ret i32 %27
}

; Function Attrs: nounwind uwtable
define dso_local i32 @ziplistLen(ptr noundef %0) #0 {
  %2 = alloca ptr, align 8
  %3 = alloca i32, align 4
  %4 = alloca ptr, align 8
  %5 = alloca i64, align 8
  store ptr %0, ptr %2, align 8, !tbaa !5
  call void @llvm.lifetime.start.p0(i64 4, ptr %3) #11
  store i32 0, ptr %3, align 4, !tbaa !12
  %6 = load ptr, ptr %2, align 8, !tbaa !5
  %7 = getelementptr inbounds nuw i8, ptr %6, i64 8
  %8 = load i16, ptr %7, align 2, !tbaa !19
  %9 = zext i16 %8 to i32
  %10 = icmp slt i32 %9, 65535
  br i1 %10, label %11, label %16

11:                                               ; preds = %1
  %12 = load ptr, ptr %2, align 8, !tbaa !5
  %13 = getelementptr inbounds nuw i8, ptr %12, i64 8
  %14 = load i16, ptr %13, align 2, !tbaa !19
  %15 = zext i16 %14 to i32
  store i32 %15, ptr %3, align 4, !tbaa !12
  br label %46

16:                                               ; preds = %1
  call void @llvm.lifetime.start.p0(i64 8, ptr %4) #11
  %17 = load ptr, ptr %2, align 8, !tbaa !5
  %18 = getelementptr inbounds nuw i8, ptr %17, i64 10
  store ptr %18, ptr %4, align 8, !tbaa !5
  call void @llvm.lifetime.start.p0(i64 8, ptr %5) #11
  %19 = load ptr, ptr %2, align 8, !tbaa !5
  %20 = load i32, ptr %19, align 4, !tbaa !12
  %21 = zext i32 %20 to i64
  store i64 %21, ptr %5, align 8, !tbaa !10
  br label %22

22:                                               ; preds = %27, %16
  %23 = load ptr, ptr %4, align 8, !tbaa !5
  %24 = load i8, ptr %23, align 1, !tbaa !14
  %25 = zext i8 %24 to i32
  %26 = icmp ne i32 %25, 255
  br i1 %26, label %27, label %37

27:                                               ; preds = %22
  %28 = load ptr, ptr %2, align 8, !tbaa !5
  %29 = load i64, ptr %5, align 8, !tbaa !10
  %30 = load ptr, ptr %4, align 8, !tbaa !5
  %31 = call i32 @zipRawEntryLengthSafe(ptr noundef %28, i64 noundef %29, ptr noundef %30)
  %32 = load ptr, ptr %4, align 8, !tbaa !5
  %33 = zext i32 %31 to i64
  %34 = getelementptr inbounds nuw i8, ptr %32, i64 %33
  store ptr %34, ptr %4, align 8, !tbaa !5
  %35 = load i32, ptr %3, align 4, !tbaa !12
  %36 = add i32 %35, 1
  store i32 %36, ptr %3, align 4, !tbaa !12
  br label %22, !llvm.loop !42

37:                                               ; preds = %22
  %38 = load i32, ptr %3, align 4, !tbaa !12
  %39 = icmp ult i32 %38, 65535
  br i1 %39, label %40, label %45

40:                                               ; preds = %37
  %41 = load i32, ptr %3, align 4, !tbaa !12
  %42 = trunc i32 %41 to i16
  %43 = load ptr, ptr %2, align 8, !tbaa !5
  %44 = getelementptr inbounds nuw i8, ptr %43, i64 8
  store i16 %42, ptr %44, align 2, !tbaa !19
  br label %45

45:                                               ; preds = %40, %37
  call void @llvm.lifetime.end.p0(i64 8, ptr %5) #11
  call void @llvm.lifetime.end.p0(i64 8, ptr %4) #11
  br label %46

46:                                               ; preds = %45, %11
  %47 = load i32, ptr %3, align 4, !tbaa !12
  call void @llvm.lifetime.end.p0(i64 4, ptr %3) #11
  ret i32 %47
}