; Function Attrs: nounwind uwtable
define dso_local i32 @ziplistLen(ptr noundef %0) local_unnamed_addr #5 {
  %2 = alloca %struct.zlentry, align 8
  %3 = getelementptr inbounds nuw i8, ptr %0, i64 8
  %4 = load i16, ptr %3, align 2, !tbaa !12
  %.not = icmp eq i16 %4, -1
  br i1 %.not, label %7, label %5

5:                                                ; preds = %1
  %6 = zext i16 %4 to i32
  br label %26

7:                                                ; preds = %1
  %8 = getelementptr inbounds nuw i8, ptr %0, i64 10
  %9 = load i32, ptr %0, align 4, !tbaa !5
  %10 = zext i32 %9 to i64
  %11 = load i8, ptr %8, align 1, !tbaa !9
  %.not1517 = icmp eq i8 %11, -1
  br i1 %.not1517, label %._crit_edge.thread, label %.lr.ph

.lr.ph:                                           ; preds = %7
  %12 = getelementptr inbounds nuw i8, ptr %2, i64 16
  %13 = getelementptr inbounds nuw i8, ptr %2, i64 12
  br label %14

14:                                               ; preds = %.lr.ph, %zipRawEntryLengthSafe.exit
  %.119 = phi i32 [ 0, %.lr.ph ], [ %22, %zipRawEntryLengthSafe.exit ]
  %.01318 = phi ptr [ %8, %.lr.ph ], [ %21, %zipRawEntryLengthSafe.exit ]
  call void @llvm.lifetime.start.p0(i64 32, ptr nonnull %2) #17
  %15 = call fastcc i32 @zipEntrySafe(ptr noundef nonnull %0, i64 noundef range(i64 0, 4294967296) %10, ptr noundef nonnull %.01318, ptr noundef %2, i32 noundef 0)
  %.not.i = icmp eq i32 %15, 0
  br i1 %.not.i, label %16, label %zipRawEntryLengthSafe.exit, !prof !24

16:                                               ; preds = %14
  tail call void @_serverAssert(ptr noundef nonnull @.str.35, ptr noundef nonnull @.str.1, i32 noundef 693) #17
  tail call void @abort() #18
  unreachable

zipRawEntryLengthSafe.exit:                       ; preds = %14
  %17 = load i32, ptr %12, align 8, !tbaa !22
  %18 = load i32, ptr %13, align 4, !tbaa !21
  %19 = add i32 %18, %17
  call void @llvm.lifetime.end.p0(i64 32, ptr nonnull %2) #17
  %20 = zext i32 %19 to i64
  %21 = getelementptr inbounds nuw i8, ptr %.01318, i64 %20
  %22 = add i32 %.119, 1
  %23 = load i8, ptr %21, align 1, !tbaa !9
  %.not15 = icmp eq i8 %23, -1
  br i1 %.not15, label %._crit_edge, label %14, !llvm.loop !36

._crit_edge:                                      ; preds = %zipRawEntryLengthSafe.exit
  %24 = icmp ult i32 %22, 65535
  br i1 %24, label %._crit_edge.thread, label %26

._crit_edge.thread:                               ; preds = %7, %._crit_edge
  %.1.lcssa21 = phi i32 [ %22, %._crit_edge ], [ 0, %7 ]
  %25 = trunc nuw i32 %.1.lcssa21 to i16
  store i16 %25, ptr %3, align 2, !tbaa !12
  br label %26

26:                                               ; preds = %._crit_edge, %._crit_edge.thread, %5
  %.0 = phi i32 [ %6, %5 ], [ %.1.lcssa21, %._crit_edge.thread ], [ %22, %._crit_edge ]
  ret i32 %.0
}